; Function Attrs: nounwind uwtable
define dso_local void @luaL_addlstring(ptr noundef %0, ptr noundef %1, i64 noundef %2) local_unnamed_addr #0 {
  %4 = load ptr, ptr %0, align 8, !tbaa !51
  %5 = getelementptr inbounds nuw i8, ptr %0, i64 24
  %6 = ptrtoint ptr %4 to i64
  %7 = ptrtoint ptr %5 to i64
  %.neg = add i64 %7, 8192
  %8 = sub i64 %.neg, %6
  %.not = icmp ugt i64 %2, %8
  br i1 %.not, label %12, label %9

9:                                                ; preds = %3
  tail call void @llvm.memcpy.p0.p0.i64(ptr align 1 %4, ptr align 1 %1, i64 %2, i1 false)
  %10 = load ptr, ptr %0, align 8, !tbaa !51
  %11 = getelementptr inbounds nuw i8, ptr %10, i64 %2
  store ptr %11, ptr %0, align 8, !tbaa !51
  br label %adjuststack.exit

12:                                               ; preds = %3
  %13 = icmp eq ptr %4, %5
  br i1 %13, label %emptybuffer.exit, label %14

14:                                               ; preds = %12
  %15 = sub i64 %6, %7
  %16 = getelementptr inbounds nuw i8, ptr %0, i64 16
  %17 = load ptr, ptr %16, align 8, !tbaa !49
  tail call void @lua_pushlstring(ptr noundef %17, ptr noundef nonnull %5, i64 noundef %15) #13
  store ptr %5, ptr %0, align 8, !tbaa !51
  %18 = getelementptr inbounds nuw i8, ptr %0, i64 8
  %19 = load i32, ptr %18, align 8, !tbaa !52
  %20 = add nsw i32 %19, 1
  store i32 %20, ptr %18, align 8, !tbaa !52
  br label %emptybuffer.exit

emptybuffer.exit:                                 ; preds = %12, %14
  %21 = getelementptr inbounds nuw i8, ptr %0, i64 16
  %22 = load ptr, ptr %21, align 8, !tbaa !49
  tail call void @lua_pushlstring(ptr noundef %22, ptr noundef %1, i64 noundef %2) #13
  %23 = getelementptr inbounds nuw i8, ptr %0, i64 8
  %24 = load i32, ptr %23, align 8, !tbaa !52
  %25 = add nsw i32 %24, 1
  store i32 %25, ptr %23, align 8, !tbaa !52
  %26 = icmp sgt i32 %24, 0
  br i1 %26, label %27, label %adjuststack.exit

27:                                               ; preds = %emptybuffer.exit
  %28 = load ptr, ptr %21, align 8, !tbaa !49
  %29 = tail call i64 @lua_objlen(ptr noundef %28, i32 noundef -1) #13
  br label %30

30:                                               ; preds = %30, %27
  %.020.i = phi i64 [ %29, %27 ], [ %38, %30 ]
  %.019.i = phi i32 [ 1, %27 ], [ %31, %30 ]
  %31 = add nuw nsw i32 %.019.i, 1
  %32 = xor i32 %.019.i, -1
  %33 = tail call i64 @lua_objlen(ptr noundef %28, i32 noundef %32) #13
  %34 = load i32, ptr %23, align 8, !tbaa !52
  %35 = sub nsw i32 %34, %.019.i
  %36 = icmp sgt i32 %35, 8
  %37 = icmp ugt i64 %.020.i, %33
  %or.cond.i = select i1 %36, i1 true, i1 %37
  %38 = add i64 %33, %.020.i
  %39 = icmp slt i32 %31, %34
  %or.cond22.i = select i1 %or.cond.i, i1 %39, i1 false
  br i1 %or.cond22.i, label %30, label %40, !llvm.loop !54

40:                                               ; preds = %30
  %.1.i = select i1 %or.cond.i, i32 %31, i32 %.019.i
  tail call void @lua_concat(ptr noundef %28, i32 noundef %.1.i) #13
  %41 = load i32, ptr %23, align 8, !tbaa !52
  %reass.sub = sub i32 %41, %.1.i
  %42 = add i32 %reass.sub, 1
  store i32 %42, ptr %23, align 8, !tbaa !52
  br label %adjuststack.exit

adjuststack.exit:                                 ; preds = %40, %emptybuffer.exit, %9
  ret void
}